target datalayout = "e-m:e-p270:32:32-p271:32:32-p272:64:64-i64:64-i128:128-f80:128-n8:16:32:64-S128"
target triple = "x86_64-pc-linux-gnu"

; Function Attrs: null_pointer_is_valid sspstrong uwtable
define ptr @get_ts_23_038_7bits_string_unpacked(ptr noundef %0, ptr noundef %1, i32 noundef %2) #0 {
  %4 = alloca ptr, align 8
  %5 = alloca ptr, align 8
  %6 = alloca i32, align 4
  %7 = alloca ptr, align 8
  %8 = alloca i32, align 4
  %9 = alloca i8, align 1
  store ptr %0, ptr %4, align 8
  store ptr %1, ptr %5, align 8
  store i32 %2, ptr %6, align 4
  call void @llvm.lifetime.start.p0(i64 8, ptr %7) #8
  call void @llvm.lifetime.start.p0(i64 4, ptr %8) #8
  call void @llvm.lifetime.start.p0(i64 1, ptr %9) #8
  store i8 0, ptr %9, align 1
  %10 = load ptr, ptr %4, align 8
  %11 = load i32, ptr %6, align 4
  %12 = add i32 %11, 1
  %13 = sext i32 %12 to i64
  %14 = call noalias ptr @wmem_strbuf_new_sized(ptr noundef %10, i64 noundef %13)
  store ptr %14, ptr %7, align 8
  store i32 0, ptr %8, align 4
  br label %15

15:                                               ; preds = %28, %3
  %16 = load i32, ptr %8, align 4
  %17 = load i32, ptr %6, align 4
  %18 = icmp slt i32 %16, %17
  br i1 %18, label %19, label %31

19:                                               ; preds = %15
  %20 = load ptr, ptr %7, align 8
  %21 = load ptr, ptr %5, align 8
  %22 = getelementptr i8, ptr %21, i32 1
  store ptr %22, ptr %5, align 8
  %23 = load i8, ptr %21, align 1
  %24 = load i8, ptr %9, align 1, !range !14, !noundef !15
  %25 = trunc i8 %24 to i1
  %26 = call zeroext i1 @handle_ts_23_038_char(ptr noundef %20, i8 noundef zeroext %23, i1 noundef zeroext %25)
  %27 = zext i1 %26 to i8
  store i8 %27, ptr %9, align 1
  br label %28

28:                                               ; preds = %19
  %29 = load i32, ptr %8, align 4
  %30 = add i32 %29, 1
  store i32 %30, ptr %8, align 4
  br label %15, !llvm.loop !17

31:                                               ; preds = %15
  %32 = load ptr, ptr %7, align 8
  %33 = call ptr @wmem_strbuf_finalize(ptr noundef %32)
  call void @llvm.lifetime.end.p0(i64 1, ptr %9) #8
  call void @llvm.lifetime.end.p0(i64 4, ptr %8) #8
  call void @llvm.lifetime.end.p0(i64 8, ptr %7) #8
  ret ptr %33
}