; Function Attrs: null_pointer_is_valid sspstrong uwtable
define ptr @get_ts_23_038_7bits_string_unpacked(ptr noundef %0, ptr noundef readonly captures(none) %1, i32 noundef %2) local_unnamed_addr #0 {
  %4 = add i32 %2, 1
  %5 = sext i32 %4 to i64
  %6 = tail call noalias ptr @wmem_strbuf_new_sized(ptr noundef %0, i64 noundef %5)
  %7 = icmp sgt i32 %2, 0
  br i1 %7, label %.lr.ph, label %._crit_edge

.lr.ph:                                           ; preds = %3, %.lr.ph
  %.012 = phi i1 [ %10, %.lr.ph ], [ false, %3 ]
  %.0811 = phi i32 [ %11, %.lr.ph ], [ 0, %3 ]
  %.0910 = phi ptr [ %8, %.lr.ph ], [ %1, %3 ]
  %8 = getelementptr i8, ptr %.0910, i64 1
  %9 = load i8, ptr %.0910, align 1
  %10 = tail call fastcc zeroext i1 @handle_ts_23_038_char(ptr noundef %6, i8 noundef zeroext %9, i1 noundef zeroext %.012)
  %11 = add nuw nsw i32 %.0811, 1
  %exitcond.not = icmp eq i32 %11, %2
  br i1 %exitcond.not, label %._crit_edge, label %.lr.ph, !llvm.loop !15

._crit_edge:                                      ; preds = %.lr.ph, %3
  %12 = tail call ptr @wmem_strbuf_finalize(ptr noundef %6)
  ret ptr %12
}